target datalayout = "e-m:e-p270:32:32-p271:32:32-p272:64:64-i64:64-i128:128-f80:128-n8:16:32:64-S128"
target triple = "x86_64-pc-linux-gnu"

%"class.cv::ExifReader" = type <{ %"class.std::vector.3", %"class.std::map", i32, [4 x i8] }>
%"class.std::vector.3" = type { %"struct.std::_Vector_base.4" }
%"struct.std::_Vector_base.4" = type { %"struct.std::_Vector_base<unsigned char, std::allocator<unsigned char>>::_Vector_impl" }
%"struct.std::_Vector_base<unsigned char, std::allocator<unsigned char>>::_Vector_impl" = type { %"struct.std::_Vector_base<unsigned char, std::allocator<unsigned char>>::_Vector_impl_data" }
%"struct.std::_Vector_base<unsigned char, std::allocator<unsigned char>>::_Vector_impl_data" = type { ptr, ptr, ptr }
%"class.std::map" = type { %"class.std::_Rb_tree" }
%"class.std::_Rb_tree" = type { %"struct.std::_Rb_tree<int, std::pair<const int, cv::ExifEntry_t>, std::_Select1st<std::pair<const int, cv::ExifEntry_t>>, std::less<int>>::_Rb_tree_impl" }
%"struct.std::_Rb_tree<int, std::pair<const int, cv::ExifEntry_t>, std::_Select1st<std::pair<const int, cv::ExifEntry_t>>, std::less<int>>::_Rb_tree_impl" = type { [8 x i8], %"struct.std::_Rb_tree_header" }
%"struct.std::_Rb_tree_header" = type { %"struct.std::_Rb_tree_node_base", i64 }
%"struct.std::_Rb_tree_node_base" = type { i32, ptr, ptr, ptr }

@_ZTIN12_GLOBAL__N_116ExifParsingErrorE = internal constant { ptr, ptr } { ptr getelementptr inbounds (ptr, ptr @_ZTVN10__cxxabiv117__class_type_infoE, i64 2), ptr @_ZTSN12_GLOBAL__N_116ExifParsingErrorE }, align 8

; Function Attrs: mustprogress nounwind uwtable
define linkonce_odr hidden noundef nonnull align 1 dereferenceable(1) ptr @_ZNKSt6vectorIhSaIhEEixEm(ptr noundef nonnull align 8 dereferenceable(24) %0, i64 noundef %1) #4 comdat align 2 {
  %3 = alloca ptr, align 8
  %4 = alloca i64, align 8
  store ptr %0, ptr %3, align 8, !tbaa !53
  store i64 %1, ptr %4, align 8, !tbaa !69
  %5 = load ptr, ptr %3, align 8
  %6 = getelementptr inbounds nuw %"struct.std::_Vector_base.4", ptr %5, i32 0, i32 0
  %7 = getelementptr inbounds nuw %"struct.std::_Vector_base<unsigned char, std::allocator<unsigned char>>::_Vector_impl_data", ptr %6, i32 0, i32 0
  %8 = load ptr, ptr %7, align 8, !tbaa !57
  %9 = load i64, ptr %4, align 8, !tbaa !69
  %10 = getelementptr inbounds nuw i8, ptr %8, i64 %9
  ret ptr %10
}

; Function Attrs: mustprogress nounwind uwtable
define linkonce_odr hidden noundef i64 @_ZNKSt6vectorIhSaIhEE4sizeEv(ptr noundef nonnull align 8 dereferenceable(24) %0) #4 comdat align 2 {
  %2 = alloca ptr, align 8
  store ptr %0, ptr %2, align 8, !tbaa !53
  %3 = load ptr, ptr %2, align 8
  %4 = getelementptr inbounds nuw %"struct.std::_Vector_base.4", ptr %3, i32 0, i32 0
  %5 = getelementptr inbounds nuw %"struct.std::_Vector_base<unsigned char, std::allocator<unsigned char>>::_Vector_impl_data", ptr %4, i32 0, i32 1
  %6 = load ptr, ptr %5, align 8, !tbaa !58
  %7 = getelementptr inbounds nuw %"struct.std::_Vector_base.4", ptr %3, i32 0, i32 0
  %8 = getelementptr inbounds nuw %"struct.std::_Vector_base<unsigned char, std::allocator<unsigned char>>::_Vector_impl_data", ptr %7, i32 0, i32 0
  %9 = load ptr, ptr %8, align 8, !tbaa !57
  %10 = ptrtoint ptr %6 to i64
  %11 = ptrtoint ptr %9 to i64
  %12 = sub i64 %10, %11
  ret i64 %12
}

; Function Attrs: mustprogress uwtable
define hidden noundef zeroext i16 @_ZNK2cv10ExifReader6getU16Em(ptr noundef nonnull align 8 dereferenceable(76) %0, i64 noundef %1) #5 align 2 {
  %3 = alloca i16, align 2
  %4 = alloca ptr, align 8
  %5 = alloca i64, align 8
  store ptr %0, ptr %4, align 8, !tbaa !35
  store i64 %1, ptr %5, align 8, !tbaa !69
  %6 = load ptr, ptr %4, align 8
  %7 = load i64, ptr %5, align 8, !tbaa !69
  %8 = add i64 %7, 1
  %9 = getelementptr inbounds nuw %"class.cv::ExifReader", ptr %6, i32 0, i32 0
  %10 = call noundef i64 @_ZNKSt6vectorIhSaIhEE4sizeEv(ptr noundef nonnull align 8 dereferenceable(24) %9) #3
  %11 = icmp uge i64 %8, %10
  br i1 %11, label %12, label %14

12:                                               ; preds = %2
  %13 = call ptr @__cxa_allocate_exception(i64 1) #3
  call void @__cxa_throw(ptr %13, ptr @_ZTIN12_GLOBAL__N_116ExifParsingErrorE, ptr null) #20
  unreachable

14:                                               ; preds = %2
  %15 = getelementptr inbounds nuw %"class.cv::ExifReader", ptr %6, i32 0, i32 2
  %16 = load i32, ptr %15, align 8, !tbaa !37
  %17 = icmp eq i32 %16, 73
  br i1 %17, label %18, label %33

18:                                               ; preds = %14
  %19 = getelementptr inbounds nuw %"class.cv::ExifReader", ptr %6, i32 0, i32 0
  %20 = load i64, ptr %5, align 8, !tbaa !69
  %21 = call noundef nonnull align 1 dereferenceable(1) ptr @_ZNKSt6vectorIhSaIhEEixEm(ptr noundef nonnull align 8 dereferenceable(24) %19, i64 noundef %20) #3
  %22 = load i8, ptr %21, align 1, !tbaa !72
  %23 = zext i8 %22 to i32
  %24 = getelementptr inbounds nuw %"class.cv::ExifReader", ptr %6, i32 0, i32 0
  %25 = load i64, ptr %5, align 8, !tbaa !69
  %26 = add i64 %25, 1
  %27 = call noundef nonnull align 1 dereferenceable(1) ptr @_ZNKSt6vectorIhSaIhEEixEm(ptr noundef nonnull align 8 dereferenceable(24) %24, i64 noundef %26) #3
  %28 = load i8, ptr %27, align 1, !tbaa !72
  %29 = zext i8 %28 to i32
  %30 = shl i32 %29, 8
  %31 = add nsw i32 %23, %30
  %32 = trunc i32 %31 to i16
  store i16 %32, ptr %3, align 2
  br label %48

33:                                               ; preds = %14
  %34 = getelementptr inbounds nuw %"class.cv::ExifReader", ptr %6, i32 0, i32 0
  %35 = load i64, ptr %5, align 8, !tbaa !69
  %36 = call noundef nonnull align 1 dereferenceable(1) ptr @_ZNKSt6vectorIhSaIhEEixEm(ptr noundef nonnull align 8 dereferenceable(24) %34, i64 noundef %35) #3
  %37 = load i8, ptr %36, align 1, !tbaa !72
  %38 = zext i8 %37 to i32
  %39 = shl i32 %38, 8
  %40 = getelementptr inbounds nuw %"class.cv::ExifReader", ptr %6, i32 0, i32 0
  %41 = load i64, ptr %5, align 8, !tbaa !69
  %42 = add i64 %41, 1
  %43 = call noundef nonnull align 1 dereferenceable(1) ptr @_ZNKSt6vectorIhSaIhEEixEm(ptr noundef nonnull align 8 dereferenceable(24) %40, i64 noundef %42) #3
  %44 = load i8, ptr %43, align 1, !tbaa !72
  %45 = zext i8 %44 to i32
  %46 = add nsw i32 %39, %45
  %47 = trunc i32 %46 to i16
  store i16 %47, ptr %3, align 2
  br label %48

48:                                               ; preds = %33, %18
  %49 = load i16, ptr %3, align 2
  ret i16 %49
}