; Function Attrs: mustprogress uwtable
define hidden noundef zeroext i16 @_ZNK2cv10ExifReader6getU16Em(ptr noundef nonnull readonly align 8 captures(none) dereferenceable(76) %0, i64 noundef %1) local_unnamed_addr #5 align 2 {
  %3 = add i64 %1, 1
  %4 = getelementptr inbounds nuw i8, ptr %0, i64 8
  %5 = load ptr, ptr %4, align 8, !tbaa !54
  %6 = load ptr, ptr %0, align 8, !tbaa !46
  %7 = ptrtoint ptr %5 to i64
  %8 = ptrtoint ptr %6 to i64
  %9 = sub i64 %7, %8
  %.not = icmp ult i64 %3, %9
  br i1 %.not, label %12, label %10

10:                                               ; preds = %2
  %11 = tail call ptr @__cxa_allocate_exception(i64 1) #25
  tail call void @__cxa_throw(ptr %11, ptr nonnull @_ZTIN12_GLOBAL__N_116ExifParsingErrorE, ptr null) #26
  unreachable

12:                                               ; preds = %2
  %13 = getelementptr inbounds nuw i8, ptr %0, i64 72
  %14 = load i32, ptr %13, align 8, !tbaa !34
  %15 = icmp eq i32 %14, 73
  %16 = getelementptr inbounds nuw i8, ptr %6, i64 %1
  %17 = load i8, ptr %16, align 1, !tbaa !12
  %18 = zext i8 %17 to i16
  br i1 %15, label %19, label %25

19:                                               ; preds = %12
  %20 = getelementptr inbounds nuw i8, ptr %6, i64 %3
  %21 = load i8, ptr %20, align 1, !tbaa !12
  %22 = zext i8 %21 to i16
  %23 = shl nuw i16 %22, 8
  %24 = or disjoint i16 %23, %18
  br label %31

25:                                               ; preds = %12
  %26 = shl nuw i16 %18, 8
  %27 = getelementptr inbounds nuw i8, ptr %6, i64 %3
  %28 = load i8, ptr %27, align 1, !tbaa !12
  %29 = zext i8 %28 to i16
  %30 = or disjoint i16 %26, %29
  br label %31

31:                                               ; preds = %25, %19
  %.0 = phi i16 [ %24, %19 ], [ %30, %25 ]
  ret i16 %.0
}